; Function Attrs: mustprogress nofree norecurse nosync nounwind willreturn memory(read, inaccessiblemem: none) uwtable
define hidden noundef zeroext i1 @_ZNK7pb_util13is_at_least_kEP9func_decl(ptr noundef nonnull readonly align 8 captures(none) dereferenceable(64) %0, ptr noundef readonly captures(none) %1) local_unnamed_addr #10 align 2 {
  %3 = getelementptr inbounds nuw i8, ptr %1, i64 24
  %4 = load ptr, ptr %3, align 8, !tbaa !180
  %5 = icmp eq ptr %4, null
  br i1 %5, label %_Z10is_decl_ofPK9func_declii.exit, label %_ZNK4decl13get_family_idEv.exit.thread.i

_ZNK4decl13get_family_idEv.exit.thread.i:         ; preds = %2
  %6 = getelementptr inbounds nuw i8, ptr %0, i64 8
  %7 = load i32, ptr %6, align 8, !tbaa !153
  %8 = load i32, ptr %4, align 8, !tbaa !87
  %9 = icmp eq i32 %8, %7
  br i1 %9, label %10, label %_Z10is_decl_ofPK9func_declii.exit

10:                                               ; preds = %_ZNK4decl13get_family_idEv.exit.thread.i
  %11 = getelementptr inbounds nuw i8, ptr %4, i64 4
  %12 = load i32, ptr %11, align 4, !tbaa !183
  %13 = icmp eq i32 %12, 1
  br label %_Z10is_decl_ofPK9func_declii.exit

_Z10is_decl_ofPK9func_declii.exit:                ; preds = %2, %10, %_ZNK4decl13get_family_idEv.exit.thread.i
  %14 = phi i1 [ false, %_ZNK4decl13get_family_idEv.exit.thread.i ], [ %13, %10 ], [ false, %2 ]
  ret i1 %14
}